target datalayout = "e-m:e-p270:32:32-p271:32:32-p272:64:64-i64:64-i128:128-f80:128-n8:16:32:64-S128"
target triple = "x86_64-pc-linux-gnu"

%struct.commit_graph_data = type { i32, i64 }
%struct.object_id = type { [32 x i8], i32 }
%struct.commit = type { %struct.object, i64, ptr, ptr, i32 }
%struct.object = type { i32, %struct.object_id }
%struct.packed_commit_list = type { ptr, i64, i64 }
%struct.compute_generation_info = type { ptr, ptr, ptr, i32, ptr, ptr, ptr }
%struct.write_commit_graph_context = type { ptr, ptr, ptr, %struct.oid_array, %struct.packed_commit_list, i32, i32, i64, ptr, i32, i64, ptr, i32, i32, ptr, ptr, ptr, i32, ptr, i8, ptr, ptr, i64, ptr, i32, i32, i32, i32, i32 }
%struct.oid_array = type { ptr, i64, i64, i32 }

@the_repository = external global ptr, align 8
@.str.31 = private unnamed_addr constant [1 x i8] zeroinitializer, align 1
@git_gettext_enabled = external global i32, align 4
@.str.56 = private unnamed_addr constant [5 x i8] c"done\00", align 1
@.str.81 = private unnamed_addr constant [42 x i8] c"Computing commit graph generation numbers\00", align 1

; Function Attrs: inlinehint nounwind uwtable
define internal void @stop_progress(ptr noundef %0) #5 {
  %2 = alloca ptr, align 8
  store ptr %0, ptr %2, align 8, !tbaa !191
  %3 = load ptr, ptr %2, align 8, !tbaa !191
  %4 = call ptr @_(ptr noundef @.str.56)
  call void @stop_progress_msg(ptr noundef %3, ptr noundef %4)
  ret void
}

; Function Attrs: inlinehint nounwind uwtable
define internal i32 @repo_parse_commit(ptr noundef %0, ptr noundef %1) #5 {
  %3 = alloca ptr, align 8
  %4 = alloca ptr, align 8
  store ptr %0, ptr %3, align 8, !tbaa !8
  store ptr %1, ptr %4, align 8, !tbaa !52
  %5 = load ptr, ptr %3, align 8, !tbaa !8
  %6 = load ptr, ptr %4, align 8, !tbaa !52
  %7 = call i32 @repo_parse_commit_gently(ptr noundef %5, ptr noundef %6, i32 noundef 0)
  ret i32 %7
}

; Function Attrs: inlinehint nounwind uwtable
define internal ptr @_(ptr noundef %0) #5 {
  %2 = alloca ptr, align 8
  %3 = alloca ptr, align 8
  store ptr %0, ptr %3, align 8, !tbaa !65
  %4 = load ptr, ptr %3, align 8, !tbaa !65
  %5 = load i8, ptr %4, align 1, !tbaa !85
  %6 = icmp ne i8 %5, 0
  br i1 %6, label %8, label %7

7:                                                ; preds = %1
  store ptr @.str.31, ptr %2, align 8
  br label %16

8:                                                ; preds = %1
  %9 = load i32, ptr @git_gettext_enabled, align 4, !tbaa !4
  %10 = icmp ne i32 %9, 0
  br i1 %10, label %13, label %11

11:                                               ; preds = %8
  %12 = load ptr, ptr %3, align 8, !tbaa !65
  store ptr %12, ptr %2, align 8
  br label %16

13:                                               ; preds = %8
  %14 = load ptr, ptr %3, align 8, !tbaa !65
  %15 = call ptr @dcgettext(ptr noundef null, ptr noundef %14, i32 noundef 5) #12
  store ptr %15, ptr %2, align 8
  br label %16

16:                                               ; preds = %13, %11, %7
  %17 = load ptr, ptr %2, align 8
  ret ptr %17
}

; Function Attrs: nounwind uwtable
define internal void @compute_generation_numbers(ptr noundef %0) #0 {
  %2 = alloca ptr, align 8
  %3 = alloca i32, align 4
  %4 = alloca %struct.compute_generation_info, align 8
  %5 = alloca ptr, align 8
  %6 = alloca ptr, align 8
  %7 = alloca i64, align 8
  store ptr %0, ptr %2, align 8, !tbaa !197
  call void @llvm.lifetime.start.p0(i64 4, ptr %3) #12
  call void @llvm.lifetime.start.p0(i64 56, ptr %4) #12
  %8 = getelementptr inbounds nuw %struct.compute_generation_info, ptr %4, i32 0, i32 0
  %9 = load ptr, ptr %2, align 8, !tbaa !197
  %10 = getelementptr inbounds nuw %struct.write_commit_graph_context, ptr %9, i32 0, i32 0
  %11 = load ptr, ptr %10, align 8, !tbaa !199
  store ptr %11, ptr %8, align 8, !tbaa !171
  %12 = getelementptr inbounds nuw %struct.compute_generation_info, ptr %4, i32 0, i32 1
  %13 = load ptr, ptr %2, align 8, !tbaa !197
  %14 = getelementptr inbounds nuw %struct.write_commit_graph_context, ptr %13, i32 0, i32 4
  store ptr %14, ptr %12, align 8, !tbaa !174
  %15 = getelementptr inbounds nuw %struct.compute_generation_info, ptr %4, i32 0, i32 2
  store ptr null, ptr %15, align 8, !tbaa !175
  %16 = getelementptr inbounds nuw %struct.compute_generation_info, ptr %4, i32 0, i32 3
  store i32 0, ptr %16, align 8, !tbaa !176
  %17 = getelementptr i8, ptr %4, i64 28
  call void @llvm.memset.p0.i64(ptr align 4 %17, i8 0, i64 4, i1 false)
  %18 = getelementptr inbounds nuw %struct.compute_generation_info, ptr %4, i32 0, i32 4
  store ptr @get_generation_from_graph_data, ptr %18, align 8, !tbaa !177
  %19 = getelementptr inbounds nuw %struct.compute_generation_info, ptr %4, i32 0, i32 5
  store ptr @set_generation_v2, ptr %19, align 8, !tbaa !178
  %20 = getelementptr inbounds nuw %struct.compute_generation_info, ptr %4, i32 0, i32 6
  store ptr null, ptr %20, align 8, !tbaa !179
  %21 = load ptr, ptr %2, align 8, !tbaa !197
  %22 = getelementptr inbounds nuw %struct.write_commit_graph_context, ptr %21, i32 0, i32 19
  %23 = load i8, ptr %22, align 8
  %24 = lshr i8 %23, 1
  %25 = and i8 %24, 1
  %26 = zext i8 %25 to i32
  %27 = icmp ne i32 %26, 0
  br i1 %27, label %28, label %39

28:                                               ; preds = %1
  %29 = load ptr, ptr @the_repository, align 8, !tbaa !8
  %30 = call ptr @_(ptr noundef @.str.81)
  %31 = load ptr, ptr %2, align 8, !tbaa !197
  %32 = getelementptr inbounds nuw %struct.write_commit_graph_context, ptr %31, i32 0, i32 4
  %33 = getelementptr inbounds nuw %struct.packed_commit_list, ptr %32, i32 0, i32 1
  %34 = load i64, ptr %33, align 8, !tbaa !218
  %35 = call ptr @start_delayed_progress(ptr noundef %29, ptr noundef %30, i64 noundef %34)
  %36 = load ptr, ptr %2, align 8, !tbaa !197
  %37 = getelementptr inbounds nuw %struct.write_commit_graph_context, ptr %36, i32 0, i32 8
  store ptr %35, ptr %37, align 8, !tbaa !242
  %38 = getelementptr inbounds nuw %struct.compute_generation_info, ptr %4, i32 0, i32 2
  store ptr %35, ptr %38, align 8, !tbaa !175
  br label %39

39:                                               ; preds = %28, %1
  %40 = load ptr, ptr %2, align 8, !tbaa !197
  %41 = getelementptr inbounds nuw %struct.write_commit_graph_context, ptr %40, i32 0, i32 19
  %42 = load i8, ptr %41, align 8
  %43 = lshr i8 %42, 6
  %44 = and i8 %43, 1
  %45 = zext i8 %44 to i32
  %46 = icmp ne i32 %45, 0
  br i1 %46, label %77, label %47

47:                                               ; preds = %39
  store i32 0, ptr %3, align 4, !tbaa !4
  br label %48

48:                                               ; preds = %73, %47
  %49 = load i32, ptr %3, align 4, !tbaa !4
  %50 = sext i32 %49 to i64
  %51 = load ptr, ptr %2, align 8, !tbaa !197
  %52 = getelementptr inbounds nuw %struct.write_commit_graph_context, ptr %51, i32 0, i32 4
  %53 = getelementptr inbounds nuw %struct.packed_commit_list, ptr %52, i32 0, i32 1
  %54 = load i64, ptr %53, align 8, !tbaa !218
  %55 = icmp ult i64 %50, %54
  br i1 %55, label %56, label %76

56:                                               ; preds = %48
  call void @llvm.lifetime.start.p0(i64 8, ptr %5) #12
  %57 = load ptr, ptr %2, align 8, !tbaa !197
  %58 = getelementptr inbounds nuw %struct.write_commit_graph_context, ptr %57, i32 0, i32 4
  %59 = getelementptr inbounds nuw %struct.packed_commit_list, ptr %58, i32 0, i32 0
  %60 = load ptr, ptr %59, align 8, !tbaa !222
  %61 = load i32, ptr %3, align 4, !tbaa !4
  %62 = sext i32 %61 to i64
  %63 = getelementptr inbounds ptr, ptr %60, i64 %62
  %64 = load ptr, ptr %63, align 8, !tbaa !52
  store ptr %64, ptr %5, align 8, !tbaa !52
  %65 = load ptr, ptr %2, align 8, !tbaa !197
  %66 = getelementptr inbounds nuw %struct.write_commit_graph_context, ptr %65, i32 0, i32 0
  %67 = load ptr, ptr %66, align 8, !tbaa !199
  %68 = load ptr, ptr %5, align 8, !tbaa !52
  %69 = call i32 @repo_parse_commit(ptr noundef %67, ptr noundef %68)
  %70 = load ptr, ptr %5, align 8, !tbaa !52
  %71 = call ptr @commit_graph_data_at(ptr noundef %70)
  %72 = getelementptr inbounds nuw %struct.commit_graph_data, ptr %71, i32 0, i32 1
  store i64 0, ptr %72, align 8, !tbaa !60
  call void @llvm.lifetime.end.p0(i64 8, ptr %5) #12
  br label %73

73:                                               ; preds = %56
  %74 = load i32, ptr %3, align 4, !tbaa !4
  %75 = add nsw i32 %74, 1
  store i32 %75, ptr %3, align 4, !tbaa !4
  br label %48, !llvm.loop !266

76:                                               ; preds = %48
  br label %77

77:                                               ; preds = %76, %39
  call void @compute_reachable_generation_numbers(ptr noundef %4, i32 noundef 2)
  store i32 0, ptr %3, align 4, !tbaa !4
  br label %78

78:                                               ; preds = %111, %77
  %79 = load i32, ptr %3, align 4, !tbaa !4
  %80 = sext i32 %79 to i64
  %81 = load ptr, ptr %2, align 8, !tbaa !197
  %82 = getelementptr inbounds nuw %struct.write_commit_graph_context, ptr %81, i32 0, i32 4
  %83 = getelementptr inbounds nuw %struct.packed_commit_list, ptr %82, i32 0, i32 1
  %84 = load i64, ptr %83, align 8, !tbaa !218
  %85 = icmp ult i64 %80, %84
  br i1 %85, label %86, label %114

86:                                               ; preds = %78
  call void @llvm.lifetime.start.p0(i64 8, ptr %6) #12
  %87 = load ptr, ptr %2, align 8, !tbaa !197
  %88 = getelementptr inbounds nuw %struct.write_commit_graph_context, ptr %87, i32 0, i32 4
  %89 = getelementptr inbounds nuw %struct.packed_commit_list, ptr %88, i32 0, i32 0
  %90 = load ptr, ptr %89, align 8, !tbaa !222
  %91 = load i32, ptr %3, align 4, !tbaa !4
  %92 = sext i32 %91 to i64
  %93 = getelementptr inbounds ptr, ptr %90, i64 %92
  %94 = load ptr, ptr %93, align 8, !tbaa !52
  store ptr %94, ptr %6, align 8, !tbaa !52
  call void @llvm.lifetime.start.p0(i64 8, ptr %7) #12
  %95 = load ptr, ptr %6, align 8, !tbaa !52
  %96 = call ptr @commit_graph_data_at(ptr noundef %95)
  %97 = getelementptr inbounds nuw %struct.commit_graph_data, ptr %96, i32 0, i32 1
  %98 = load i64, ptr %97, align 8, !tbaa !60
  %99 = load ptr, ptr %6, align 8, !tbaa !52
  %100 = getelementptr inbounds nuw %struct.commit, ptr %99, i32 0, i32 1
  %101 = load i64, ptr %100, align 8, !tbaa !160
  %102 = sub i64 %98, %101
  store i64 %102, ptr %7, align 8, !tbaa !73
  %103 = load i64, ptr %7, align 8, !tbaa !73
  %104 = icmp ugt i64 %103, 2147483647
  br i1 %104, label %105, label %110

105:                                              ; preds = %86
  %106 = load ptr, ptr %2, align 8, !tbaa !197
  %107 = getelementptr inbounds nuw %struct.write_commit_graph_context, ptr %106, i32 0, i32 6
  %108 = load i32, ptr %107, align 4, !tbaa !206
  %109 = add nsw i32 %108, 1
  store i32 %109, ptr %107, align 4, !tbaa !206
  br label %110

110:                                              ; preds = %105, %86
  call void @llvm.lifetime.end.p0(i64 8, ptr %7) #12
  call void @llvm.lifetime.end.p0(i64 8, ptr %6) #12
  br label %111

111:                                              ; preds = %110
  %112 = load i32, ptr %3, align 4, !tbaa !4
  %113 = add nsw i32 %112, 1
  store i32 %113, ptr %3, align 4, !tbaa !4
  br label %78, !llvm.loop !267

114:                                              ; preds = %78
  %115 = load ptr, ptr %2, align 8, !tbaa !197
  %116 = getelementptr inbounds nuw %struct.write_commit_graph_context, ptr %115, i32 0, i32 8
  call void @stop_progress(ptr noundef %116)
  call void @llvm.lifetime.end.p0(i64 56, ptr %4) #12
  call void @llvm.lifetime.end.p0(i64 4, ptr %3) #12
  ret void
}