; Function Attrs: nounwind uwtable
define internal fastcc void @compute_generation_numbers(ptr noundef %0) unnamed_addr #0 {
  %2 = alloca %struct.compute_generation_info, align 8
  call void @llvm.lifetime.start.p0(i64 56, ptr nonnull %2) #24
  %3 = load ptr, ptr %0, align 8, !tbaa !178
  store ptr %3, ptr %2, align 8, !tbaa !157
  %4 = getelementptr inbounds nuw i8, ptr %2, i64 8
  %5 = getelementptr inbounds nuw i8, ptr %0, i64 56
  store ptr %5, ptr %4, align 8, !tbaa !160
  %6 = getelementptr inbounds nuw i8, ptr %2, i64 16
  %7 = getelementptr inbounds nuw i8, ptr %2, i64 32
  call void @llvm.memset.p0.i64(ptr noundef nonnull align 8 dereferenceable(16) %6, i8 0, i64 16, i1 false)
  store ptr @get_generation_from_graph_data, ptr %7, align 8, !tbaa !161
  %8 = getelementptr inbounds nuw i8, ptr %2, i64 40
  store ptr @set_generation_v2, ptr %8, align 8, !tbaa !162
  %9 = getelementptr inbounds nuw i8, ptr %2, i64 48
  store ptr null, ptr %9, align 8, !tbaa !163
  %10 = getelementptr inbounds nuw i8, ptr %0, i64 176
  %11 = load i8, ptr %10, align 8
  %12 = and i8 %11, 2
  %.not = icmp eq i8 %12, 0
  br i1 %.not, label %22, label %13

13:                                               ; preds = %1
  %14 = load ptr, ptr @the_repository, align 8, !tbaa !4
  %15 = load i32, ptr @git_gettext_enabled, align 4, !tbaa !47
  %.not4.i = icmp eq i32 %15, 0
  br i1 %.not4.i, label %_.exit, label %16

16:                                               ; preds = %13
  %17 = tail call ptr @dcgettext(ptr noundef null, ptr noundef nonnull @.str.81, i32 noundef 5) #24
  br label %_.exit

_.exit:                                           ; preds = %13, %16
  %.0.i = phi ptr [ %17, %16 ], [ @.str.81, %13 ]
  %18 = getelementptr inbounds nuw i8, ptr %0, i64 64
  %19 = load i64, ptr %18, align 8, !tbaa !222
  %20 = tail call ptr @start_delayed_progress(ptr noundef %14, ptr noundef %.0.i, i64 noundef %19) #24
  %21 = getelementptr inbounds nuw i8, ptr %0, i64 96
  store ptr %20, ptr %21, align 8, !tbaa !203
  store ptr %20, ptr %6, align 8, !tbaa !167
  %.pre = load i8, ptr %10, align 8
  br label %22

22:                                               ; preds = %_.exit, %1
  %23 = phi i8 [ %.pre, %_.exit ], [ %11, %1 ]
  %24 = and i8 %23, 64
  %.not25 = icmp eq i8 %24, 0
  br i1 %.not25, label %.preheader, label %.loopexit

.preheader:                                       ; preds = %22
  %25 = getelementptr inbounds nuw i8, ptr %0, i64 64
  %26 = load i64, ptr %25, align 8, !tbaa !222
  %.not30 = icmp eq i64 %26, 0
  br i1 %.not30, label %.loopexit, label %.lr.ph

.lr.ph:                                           ; preds = %.preheader, %.lr.ph
  %indvars.iv = phi i64 [ %indvars.iv.next, %.lr.ph ], [ 0, %.preheader ]
  %27 = load ptr, ptr %5, align 8, !tbaa !224
  %28 = getelementptr inbounds nuw ptr, ptr %27, i64 %indvars.iv
  %29 = load ptr, ptr %28, align 8, !tbaa !165
  %30 = load ptr, ptr %0, align 8, !tbaa !178
  %31 = tail call i32 @repo_parse_commit_gently(ptr noundef %30, ptr noundef %29, i32 noundef 0) #24
  %32 = getelementptr i8, ptr %29, i64 64
  %.val = load i32, ptr %32, align 8, !tbaa !49
  %33 = tail call fastcc ptr @commit_graph_data_at(i32 %.val)
  %34 = getelementptr inbounds nuw i8, ptr %33, i64 8
  store i64 0, ptr %34, align 8, !tbaa !63
  %indvars.iv.next = add nuw nsw i64 %indvars.iv, 1
  %35 = load i64, ptr %25, align 8, !tbaa !222
  %36 = icmp ugt i64 %35, %indvars.iv.next
  br i1 %36, label %.lr.ph, label %.loopexit, !llvm.loop !268

.loopexit:                                        ; preds = %.lr.ph, %.preheader, %22
  call fastcc void @compute_reachable_generation_numbers(ptr noundef %2, i32 noundef 2)
  %37 = getelementptr inbounds nuw i8, ptr %0, i64 64
  %38 = load i64, ptr %37, align 8, !tbaa !222
  %.not31 = icmp eq i64 %38, 0
  br i1 %.not31, label %._crit_edge, label %.lr.ph29

.lr.ph29:                                         ; preds = %.loopexit
  %39 = getelementptr inbounds nuw i8, ptr %0, i64 84
  br label %40

40:                                               ; preds = %.lr.ph29, %55
  %indvars.iv33 = phi i64 [ 0, %.lr.ph29 ], [ %indvars.iv.next34, %55 ]
  %41 = load ptr, ptr %5, align 8, !tbaa !224
  %42 = getelementptr inbounds nuw ptr, ptr %41, i64 %indvars.iv33
  %43 = load ptr, ptr %42, align 8, !tbaa !165
  %44 = getelementptr i8, ptr %43, i64 64
  %.val26 = load i32, ptr %44, align 8, !tbaa !49
  %45 = tail call fastcc ptr @commit_graph_data_at(i32 %.val26)
  %46 = getelementptr inbounds nuw i8, ptr %45, i64 8
  %47 = load i64, ptr %46, align 8, !tbaa !63
  %48 = getelementptr inbounds nuw i8, ptr %43, i64 40
  %49 = load i64, ptr %48, align 8, !tbaa !139
  %50 = sub i64 %47, %49
  %51 = icmp ugt i64 %50, 2147483647
  br i1 %51, label %52, label %55

52:                                               ; preds = %40
  %53 = load i32, ptr %39, align 4, !tbaa !186
  %54 = add nsw i32 %53, 1
  store i32 %54, ptr %39, align 4, !tbaa !186
  br label %55

55:                                               ; preds = %52, %40
  %indvars.iv.next34 = add nuw nsw i64 %indvars.iv33, 1
  %56 = load i64, ptr %37, align 8, !tbaa !222
  %57 = icmp ugt i64 %56, %indvars.iv.next34
  br i1 %57, label %40, label %._crit_edge, !llvm.loop !269

._crit_edge:                                      ; preds = %55, %.loopexit
  %58 = load i32, ptr @git_gettext_enabled, align 4, !tbaa !47
  %.not4.i.i = icmp eq i32 %58, 0
  br i1 %.not4.i.i, label %stop_progress.exit, label %59

59:                                               ; preds = %._crit_edge
  %60 = tail call ptr @dcgettext(ptr noundef null, ptr noundef nonnull @.str.56, i32 noundef 5) #24
  br label %stop_progress.exit

stop_progress.exit:                               ; preds = %._crit_edge, %59
  %.0.i.i = phi ptr [ %60, %59 ], [ @.str.56, %._crit_edge ]
  %61 = getelementptr inbounds nuw i8, ptr %0, i64 96
  tail call void @stop_progress_msg(ptr noundef nonnull %61, ptr noundef %.0.i.i) #24
  call void @llvm.lifetime.end.p0(i64 56, ptr nonnull %2) #24
  ret void
}